target datalayout = "e-m:e-p270:32:32-p271:32:32-p272:64:64-i64:64-i128:128-f80:128-n8:16:32:64-S128"
target triple = "x86_64-pc-linux-gnu"

%"class.std::bitset" = type { %"struct.std::_Base_bitset" }
%"struct.std::_Base_bitset" = type { [17408 x i64] }
%"class.pxrInternal_v0_24__pxrReserved__::TfUnicodeXidContinueFlagData" = type { %"class.std::bitset" }

; Function Attrs: mustprogress nounwind uwtable
define linkonce_odr noundef i64 @_ZNSt12_Base_bitsetILm17408EE11_S_whichbitEm(i64 noundef %0) #1 comdat align 2 {
  %2 = alloca i64, align 8
  store i64 %0, ptr %2, align 8
  %3 = load i64, ptr %2, align 8
  %4 = urem i64 %3, 64
  ret i64 %4
}

; Function Attrs: mustprogress nounwind uwtable
define linkonce_odr noundef i64 @_ZNSt12_Base_bitsetILm17408EE12_S_whichwordEm(i64 noundef %0) #1 comdat align 2 {
  %2 = alloca i64, align 8
  store i64 %0, ptr %2, align 8
  %3 = load i64, ptr %2, align 8
  %4 = udiv i64 %3, 64
  ret i64 %4
}

; Function Attrs: mustprogress nounwind uwtable
define linkonce_odr noundef i64 @_ZNSt12_Base_bitsetILm17408EE10_S_maskbitEm(i64 noundef %0) #1 comdat align 2 {
  %2 = alloca i64, align 8
  store i64 %0, ptr %2, align 8
  %3 = load i64, ptr %2, align 8
  %4 = call noundef i64 @_ZNSt12_Base_bitsetILm17408EE11_S_whichbitEm(i64 noundef %3) #4
  %5 = shl i64 1, %4
  ret i64 %5
}

; Function Attrs: mustprogress nounwind uwtable
define linkonce_odr noundef i64 @_ZNKSt12_Base_bitsetILm17408EE10_M_getwordEm(ptr noundef nonnull align 8 dereferenceable(139264) %0, i64 noundef %1) #1 comdat align 2 {
  %3 = alloca ptr, align 8
  %4 = alloca i64, align 8
  store ptr %0, ptr %3, align 8
  store i64 %1, ptr %4, align 8
  %5 = load ptr, ptr %3, align 8
  %6 = getelementptr inbounds nuw %"struct.std::_Base_bitset", ptr %5, i32 0, i32 0
  %7 = load i64, ptr %4, align 8
  %8 = call noundef i64 @_ZNSt12_Base_bitsetILm17408EE12_S_whichwordEm(i64 noundef %7) #4
  %9 = getelementptr inbounds [17408 x i64], ptr %6, i64 0, i64 %8
  %10 = load i64, ptr %9, align 8
  ret i64 %10
}

; Function Attrs: mustprogress nounwind uwtable
define linkonce_odr noundef zeroext i1 @_ZNKSt6bitsetILm1114112EE15_Unchecked_testEm(ptr noundef nonnull align 8 dereferenceable(139264) %0, i64 noundef %1) #1 comdat align 2 {
  %3 = alloca ptr, align 8
  %4 = alloca i64, align 8
  store ptr %0, ptr %3, align 8
  store i64 %1, ptr %4, align 8
  %5 = load ptr, ptr %3, align 8
  %6 = load i64, ptr %4, align 8
  %7 = call noundef i64 @_ZNKSt12_Base_bitsetILm17408EE10_M_getwordEm(ptr noundef nonnull align 8 dereferenceable(139264) %5, i64 noundef %6) #4
  %8 = load i64, ptr %4, align 8
  %9 = call noundef i64 @_ZNSt12_Base_bitsetILm17408EE10_S_maskbitEm(i64 noundef %8) #4
  %10 = and i64 %7, %9
  %11 = icmp ne i64 %10, 0
  ret i1 %11
}

; Function Attrs: mustprogress nounwind uwtable
define linkonce_odr noundef zeroext i1 @_ZNKSt6bitsetILm1114112EEixEm(ptr noundef nonnull align 8 dereferenceable(139264) %0, i64 noundef %1) #1 comdat align 2 {
  %3 = alloca ptr, align 8
  %4 = alloca i64, align 8
  store ptr %0, ptr %3, align 8
  store i64 %1, ptr %4, align 8
  %5 = load ptr, ptr %3, align 8
  %6 = load i64, ptr %4, align 8
  %7 = call noundef zeroext i1 @_ZNKSt6bitsetILm1114112EE15_Unchecked_testEm(ptr noundef nonnull align 8 dereferenceable(139264) %5, i64 noundef %6) #4
  ret i1 %7
}

; Function Attrs: mustprogress nounwind uwtable
define linkonce_odr noundef zeroext i1 @_ZNK32pxrInternal_v0_24__pxrReserved__28TfUnicodeXidContinueFlagData22IsXidContinueCodePointEj(ptr noundef nonnull align 8 dereferenceable(139264) %0, i32 noundef %1) #1 comdat align 2 {
  %3 = alloca ptr, align 8
  %4 = alloca i32, align 4
  store ptr %0, ptr %3, align 8
  store i32 %1, ptr %4, align 4
  %5 = load ptr, ptr %3, align 8
  %6 = load i32, ptr %4, align 4
  %7 = icmp ult i32 %6, 1114112
  br i1 %7, label %8, label %13

8:                                                ; preds = %2
  %9 = getelementptr inbounds nuw %"class.pxrInternal_v0_24__pxrReserved__::TfUnicodeXidContinueFlagData", ptr %5, i32 0, i32 0
  %10 = load i32, ptr %4, align 4
  %11 = zext i32 %10 to i64
  %12 = call noundef zeroext i1 @_ZNKSt6bitsetILm1114112EEixEm(ptr noundef nonnull align 8 dereferenceable(139264) %9, i64 noundef %11)
  br label %14

13:                                               ; preds = %2
  br label %14

14:                                               ; preds = %13, %8
  %15 = phi i1 [ %12, %8 ], [ false, %13 ]
  ret i1 %15
}

; Function Attrs: mustprogress uwtable
define noundef zeroext i1 @_ZN32pxrInternal_v0_24__pxrReserved__28TfIsUtf8CodePointXidContinueEj(i32 noundef %0) #0 {
  %2 = alloca i32, align 4
  store i32 %0, ptr %2, align 4
  %3 = call noundef nonnull align 8 dereferenceable(139264) ptr @_ZN32pxrInternal_v0_24__pxrReserved__31TfUnicodeGetXidContinueFlagDataEv()
  %4 = load i32, ptr %2, align 4
  %5 = call noundef zeroext i1 @_ZNK32pxrInternal_v0_24__pxrReserved__28TfUnicodeXidContinueFlagData22IsXidContinueCodePointEj(ptr noundef nonnull align 8 dereferenceable(139264) %3, i32 noundef %4)
  ret i1 %5
}